; Function Attrs: nounwind uwtable
define noalias noundef nonnull ptr @l_Lean_Meta_Grind_Arith_Cutsat_tightUsingDvd___lambda__2___boxed(ptr noundef %0, ptr noundef %1, ptr noundef %2, ptr noundef %3, ptr noundef %4, ptr noundef %5, ptr noundef %6, ptr noundef %7, ptr noundef %8, ptr noundef %9, ptr noundef %10, ptr noundef %11, ptr noundef %12, ptr noundef %13, ptr noundef %14) local_unnamed_addr #1 {
  %16 = tail call ptr @l_Lean_Meta_Grind_Arith_Cutsat_tightUsingDvd___lambda__2(ptr noundef %0, ptr noundef %1, ptr noundef %2, ptr noundef %3, ptr noundef %4, ptr poison, ptr poison, ptr poison, ptr poison, ptr poison, ptr poison, ptr poison, ptr poison, ptr poison, ptr noundef %14)
  %17 = ptrtoint ptr %13 to i64
  %18 = and i64 %17, 1
  %.not = icmp eq i64 %18, 0
  br i1 %.not, label %19, label %lean_dec.exit38

19:                                               ; preds = %15
  %20 = load i32, ptr %13, align 4, !tbaa !6
  %21 = icmp sgt i32 %20, 1
  br i1 %21, label %22, label %24, !prof !5

22:                                               ; preds = %19
  %23 = add nsw i32 %20, -1
  store i32 %23, ptr %13, align 4, !tbaa !6
  br label %lean_dec.exit38

24:                                               ; preds = %19
  %.not.i = icmp eq i32 %20, 0
  br i1 %.not.i, label %lean_dec.exit38, label %25

25:                                               ; preds = %24
  tail call void @lean_dec_ref_cold(ptr noundef nonnull %13) #6
  br label %lean_dec.exit38

lean_dec.exit38:                                  ; preds = %25, %24, %22, %15
  %26 = ptrtoint ptr %12 to i64
  %27 = and i64 %26, 1
  %.not61 = icmp eq i64 %27, 0
  br i1 %.not61, label %28, label %lean_dec.exit37

28:                                               ; preds = %lean_dec.exit38
  %29 = load i32, ptr %12, align 4, !tbaa !6
  %30 = icmp sgt i32 %29, 1
  br i1 %30, label %31, label %33, !prof !5

31:                                               ; preds = %28
  %32 = add nsw i32 %29, -1
  store i32 %32, ptr %12, align 4, !tbaa !6
  br label %lean_dec.exit37

33:                                               ; preds = %28
  %.not.i39 = icmp eq i32 %29, 0
  br i1 %.not.i39, label %lean_dec.exit37, label %34

34:                                               ; preds = %33
  tail call void @lean_dec_ref_cold(ptr noundef nonnull %12) #6
  br label %lean_dec.exit37

lean_dec.exit37:                                  ; preds = %34, %33, %31, %lean_dec.exit38
  %35 = ptrtoint ptr %11 to i64
  %36 = and i64 %35, 1
  %.not62 = icmp eq i64 %36, 0
  br i1 %.not62, label %37, label %lean_dec.exit36

37:                                               ; preds = %lean_dec.exit37
  %38 = load i32, ptr %11, align 4, !tbaa !6
  %39 = icmp sgt i32 %38, 1
  br i1 %39, label %40, label %42, !prof !5

40:                                               ; preds = %37
  %41 = add nsw i32 %38, -1
  store i32 %41, ptr %11, align 4, !tbaa !6
  br label %lean_dec.exit36

42:                                               ; preds = %37
  %.not.i41 = icmp eq i32 %38, 0
  br i1 %.not.i41, label %lean_dec.exit36, label %43

43:                                               ; preds = %42
  tail call void @lean_dec_ref_cold(ptr noundef nonnull %11) #6
  br label %lean_dec.exit36

lean_dec.exit36:                                  ; preds = %43, %42, %40, %lean_dec.exit37
  %44 = ptrtoint ptr %10 to i64
  %45 = and i64 %44, 1
  %.not63 = icmp eq i64 %45, 0
  br i1 %.not63, label %46, label %lean_dec.exit35

46:                                               ; preds = %lean_dec.exit36
  %47 = load i32, ptr %10, align 4, !tbaa !6
  %48 = icmp sgt i32 %47, 1
  br i1 %48, label %49, label %51, !prof !5

49:                                               ; preds = %46
  %50 = add nsw i32 %47, -1
  store i32 %50, ptr %10, align 4, !tbaa !6
  br label %lean_dec.exit35

51:                                               ; preds = %46
  %.not.i43 = icmp eq i32 %47, 0
  br i1 %.not.i43, label %lean_dec.exit35, label %52

52:                                               ; preds = %51
  tail call void @lean_dec_ref_cold(ptr noundef nonnull %10) #6
  br label %lean_dec.exit35

lean_dec.exit35:                                  ; preds = %52, %51, %49, %lean_dec.exit36
  %53 = ptrtoint ptr %9 to i64
  %54 = and i64 %53, 1
  %.not64 = icmp eq i64 %54, 0
  br i1 %.not64, label %55, label %lean_dec.exit34

55:                                               ; preds = %lean_dec.exit35
  %56 = load i32, ptr %9, align 4, !tbaa !6
  %57 = icmp sgt i32 %56, 1
  br i1 %57, label %58, label %60, !prof !5

58:                                               ; preds = %55
  %59 = add nsw i32 %56, -1
  store i32 %59, ptr %9, align 4, !tbaa !6
  br label %lean_dec.exit34

60:                                               ; preds = %55
  %.not.i45 = icmp eq i32 %56, 0
  br i1 %.not.i45, label %lean_dec.exit34, label %61

61:                                               ; preds = %60
  tail call void @lean_dec_ref_cold(ptr noundef nonnull %9) #6
  br label %lean_dec.exit34

lean_dec.exit34:                                  ; preds = %61, %60, %58, %lean_dec.exit35
  %62 = ptrtoint ptr %8 to i64
  %63 = and i64 %62, 1
  %.not65 = icmp eq i64 %63, 0
  br i1 %.not65, label %64, label %lean_dec.exit33

64:                                               ; preds = %lean_dec.exit34
  %65 = load i32, ptr %8, align 4, !tbaa !6
  %66 = icmp sgt i32 %65, 1
  br i1 %66, label %67, label %69, !prof !5

67:                                               ; preds = %64
  %68 = add nsw i32 %65, -1
  store i32 %68, ptr %8, align 4, !tbaa !6
  br label %lean_dec.exit33

69:                                               ; preds = %64
  %.not.i47 = icmp eq i32 %65, 0
  br i1 %.not.i47, label %lean_dec.exit33, label %70

70:                                               ; preds = %69
  tail call void @lean_dec_ref_cold(ptr noundef nonnull %8) #6
  br label %lean_dec.exit33

lean_dec.exit33:                                  ; preds = %70, %69, %67, %lean_dec.exit34
  %71 = ptrtoint ptr %7 to i64
  %72 = and i64 %71, 1
  %.not66 = icmp eq i64 %72, 0
  br i1 %.not66, label %73, label %lean_dec.exit32

73:                                               ; preds = %lean_dec.exit33
  %74 = load i32, ptr %7, align 4, !tbaa !6
  %75 = icmp sgt i32 %74, 1
  br i1 %75, label %76, label %78, !prof !5

76:                                               ; preds = %73
  %77 = add nsw i32 %74, -1
  store i32 %77, ptr %7, align 4, !tbaa !6
  br label %lean_dec.exit32

78:                                               ; preds = %73
  %.not.i49 = icmp eq i32 %74, 0
  br i1 %.not.i49, label %lean_dec.exit32, label %79

79:                                               ; preds = %78
  tail call void @lean_dec_ref_cold(ptr noundef nonnull %7) #6
  br label %lean_dec.exit32

lean_dec.exit32:                                  ; preds = %79, %78, %76, %lean_dec.exit33
  %80 = ptrtoint ptr %6 to i64
  %81 = and i64 %80, 1
  %.not67 = icmp eq i64 %81, 0
  br i1 %.not67, label %82, label %lean_dec.exit31

82:                                               ; preds = %lean_dec.exit32
  %83 = load i32, ptr %6, align 4, !tbaa !6
  %84 = icmp sgt i32 %83, 1
  br i1 %84, label %85, label %87, !prof !5

85:                                               ; preds = %82
  %86 = add nsw i32 %83, -1
  store i32 %86, ptr %6, align 4, !tbaa !6
  br label %lean_dec.exit31

87:                                               ; preds = %82
  %.not.i51 = icmp eq i32 %83, 0
  br i1 %.not.i51, label %lean_dec.exit31, label %88

88:                                               ; preds = %87
  tail call void @lean_dec_ref_cold(ptr noundef nonnull %6) #6
  br label %lean_dec.exit31

lean_dec.exit31:                                  ; preds = %88, %87, %85, %lean_dec.exit32
  %89 = ptrtoint ptr %5 to i64
  %90 = and i64 %89, 1
  %.not68 = icmp eq i64 %90, 0
  br i1 %.not68, label %91, label %lean_dec.exit30

91:                                               ; preds = %lean_dec.exit31
  %92 = load i32, ptr %5, align 4, !tbaa !6
  %93 = icmp sgt i32 %92, 1
  br i1 %93, label %94, label %96, !prof !5

94:                                               ; preds = %91
  %95 = add nsw i32 %92, -1
  store i32 %95, ptr %5, align 4, !tbaa !6
  br label %lean_dec.exit30

96:                                               ; preds = %91
  %.not.i53 = icmp eq i32 %92, 0
  br i1 %.not.i53, label %lean_dec.exit30, label %97

97:                                               ; preds = %96
  tail call void @lean_dec_ref_cold(ptr noundef nonnull %5) #6
  br label %lean_dec.exit30

lean_dec.exit30:                                  ; preds = %97, %96, %94, %lean_dec.exit31
  %98 = ptrtoint ptr %3 to i64
  %99 = and i64 %98, 1
  %.not69 = icmp eq i64 %99, 0
  br i1 %.not69, label %100, label %lean_dec.exit29

100:                                              ; preds = %lean_dec.exit30
  %101 = load i32, ptr %3, align 4, !tbaa !6
  %102 = icmp sgt i32 %101, 1
  br i1 %102, label %103, label %105, !prof !5

103:                                              ; preds = %100
  %104 = add nsw i32 %101, -1
  store i32 %104, ptr %3, align 4, !tbaa !6
  br label %lean_dec.exit29

105:                                              ; preds = %100
  %.not.i55 = icmp eq i32 %101, 0
  br i1 %.not.i55, label %lean_dec.exit29, label %106

106:                                              ; preds = %105
  tail call void @lean_dec_ref_cold(ptr noundef nonnull %3) #6
  br label %lean_dec.exit29

lean_dec.exit29:                                  ; preds = %106, %105, %103, %lean_dec.exit30
  %107 = ptrtoint ptr %2 to i64
  %108 = and i64 %107, 1
  %.not70 = icmp eq i64 %108, 0
  br i1 %.not70, label %109, label %lean_dec.exit28

109:                                              ; preds = %lean_dec.exit29
  %110 = load i32, ptr %2, align 4, !tbaa !6
  %111 = icmp sgt i32 %110, 1
  br i1 %111, label %112, label %114, !prof !5

112:                                              ; preds = %109
  %113 = add nsw i32 %110, -1
  store i32 %113, ptr %2, align 4, !tbaa !6
  br label %lean_dec.exit28

114:                                              ; preds = %109
  %.not.i57 = icmp eq i32 %110, 0
  br i1 %.not.i57, label %lean_dec.exit28, label %115

115:                                              ; preds = %114
  tail call void @lean_dec_ref_cold(ptr noundef nonnull %2) #6
  br label %lean_dec.exit28

lean_dec.exit28:                                  ; preds = %115, %114, %112, %lean_dec.exit29
  %116 = ptrtoint ptr %1 to i64
  %117 = and i64 %116, 1
  %.not71 = icmp eq i64 %117, 0
  br i1 %.not71, label %118, label %lean_dec.exit

118:                                              ; preds = %lean_dec.exit28
  %119 = load i32, ptr %1, align 4, !tbaa !6
  %120 = icmp sgt i32 %119, 1
  br i1 %120, label %121, label %123, !prof !5

121:                                              ; preds = %118
  %122 = add nsw i32 %119, -1
  store i32 %122, ptr %1, align 4, !tbaa !6
  br label %lean_dec.exit

123:                                              ; preds = %118
  %.not.i59 = icmp eq i32 %119, 0
  br i1 %.not.i59, label %lean_dec.exit, label %124

124:                                              ; preds = %123
  tail call void @lean_dec_ref_cold(ptr noundef nonnull %1) #6
  br label %lean_dec.exit

lean_dec.exit:                                    ; preds = %124, %123, %121, %lean_dec.exit28
  ret ptr %16
}